target datalayout = "e-m:e-p270:32:32-p271:32:32-p272:64:64-i64:64-i128:128-f80:128-n8:16:32:64-S128"
target triple = "x86_64-pc-linux-gnu"

; Function Attrs: mustprogress nounwind uwtable
define void @_ZN6duckdb9NextMonthERiS0_(ptr noundef nonnull align 4 dereferenceable(4) %0, ptr noundef nonnull align 4 dereferenceable(4) %1) #4 {
  %3 = alloca ptr, align 8
  %4 = alloca ptr, align 8
  store ptr %0, ptr %3, align 8, !tbaa !108
  store ptr %1, ptr %4, align 8, !tbaa !108
  %5 = load ptr, ptr %4, align 8, !tbaa !108
  %6 = load i32, ptr %5, align 4, !tbaa !110
  %7 = add nsw i32 %6, 1
  store i32 %7, ptr %5, align 4, !tbaa !110
  %8 = load ptr, ptr %4, align 8, !tbaa !108
  %9 = load i32, ptr %8, align 4, !tbaa !110
  %10 = icmp eq i32 %9, 13
  br i1 %10, label %11, label %16

11:                                               ; preds = %2
  %12 = load ptr, ptr %3, align 8, !tbaa !108
  %13 = load i32, ptr %12, align 4, !tbaa !110
  %14 = add nsw i32 %13, 1
  store i32 %14, ptr %12, align 4, !tbaa !110
  %15 = load ptr, ptr %4, align 8, !tbaa !108
  store i32 1, ptr %15, align 4, !tbaa !110
  br label %16

16:                                               ; preds = %11, %2
  ret void
}

; Function Attrs: mustprogress uwtable
define void @_ZN6duckdb7NextDayERiS0_S0_(ptr noundef nonnull align 4 dereferenceable(4) %0, ptr noundef nonnull align 4 dereferenceable(4) %1, ptr noundef nonnull align 4 dereferenceable(4) %2) #0 {
  %4 = alloca ptr, align 8
  %5 = alloca ptr, align 8
  %6 = alloca ptr, align 8
  store ptr %0, ptr %4, align 8, !tbaa !108
  store ptr %1, ptr %5, align 8, !tbaa !108
  store ptr %2, ptr %6, align 8, !tbaa !108
  %7 = load ptr, ptr %6, align 8, !tbaa !108
  %8 = load i32, ptr %7, align 4, !tbaa !110
  %9 = add nsw i32 %8, 1
  store i32 %9, ptr %7, align 4, !tbaa !110
  %10 = load ptr, ptr %4, align 8, !tbaa !108
  %11 = load i32, ptr %10, align 4, !tbaa !110
  %12 = load ptr, ptr %5, align 8, !tbaa !108
  %13 = load i32, ptr %12, align 4, !tbaa !110
  %14 = load ptr, ptr %6, align 8, !tbaa !108
  %15 = load i32, ptr %14, align 4, !tbaa !110
  %16 = call noundef zeroext i1 @_ZN6duckdb4Date7IsValidEiii(i32 noundef %11, i32 noundef %13, i32 noundef %15)
  br i1 %16, label %21, label %17

17:                                               ; preds = %3
  %18 = load ptr, ptr %4, align 8, !tbaa !108
  %19 = load ptr, ptr %5, align 8, !tbaa !108
  call void @_ZN6duckdb9NextMonthERiS0_(ptr noundef nonnull align 4 dereferenceable(4) %18, ptr noundef nonnull align 4 dereferenceable(4) %19)
  %20 = load ptr, ptr %6, align 8, !tbaa !108
  store i32 1, ptr %20, align 4, !tbaa !110
  br label %21

21:                                               ; preds = %17, %3
  ret void
}

; Function Attrs: mustprogress uwtable
define void @_ZN6duckdb8NextHourERiS0_S0_S0_(ptr noundef nonnull align 4 dereferenceable(4) %0, ptr noundef nonnull align 4 dereferenceable(4) %1, ptr noundef nonnull align 4 dereferenceable(4) %2, ptr noundef nonnull align 4 dereferenceable(4) %3) #0 {
  %5 = alloca ptr, align 8
  %6 = alloca ptr, align 8
  %7 = alloca ptr, align 8
  %8 = alloca ptr, align 8
  store ptr %0, ptr %5, align 8, !tbaa !108
  store ptr %1, ptr %6, align 8, !tbaa !108
  store ptr %2, ptr %7, align 8, !tbaa !108
  store ptr %3, ptr %8, align 8, !tbaa !108
  %9 = load ptr, ptr %8, align 8, !tbaa !108
  %10 = load i32, ptr %9, align 4, !tbaa !110
  %11 = add nsw i32 %10, 1
  store i32 %11, ptr %9, align 4, !tbaa !110
  %12 = load ptr, ptr %8, align 8, !tbaa !108
  %13 = load i32, ptr %12, align 4, !tbaa !110
  %14 = icmp sge i32 %13, 24
  br i1 %14, label %15, label %20

15:                                               ; preds = %4
  %16 = load ptr, ptr %5, align 8, !tbaa !108
  %17 = load ptr, ptr %6, align 8, !tbaa !108
  %18 = load ptr, ptr %7, align 8, !tbaa !108
  call void @_ZN6duckdb7NextDayERiS0_S0_(ptr noundef nonnull align 4 dereferenceable(4) %16, ptr noundef nonnull align 4 dereferenceable(4) %17, ptr noundef nonnull align 4 dereferenceable(4) %18)
  %19 = load ptr, ptr %8, align 8, !tbaa !108
  store i32 0, ptr %19, align 4, !tbaa !110
  br label %20

20:                                               ; preds = %15, %4
  ret void
}

; Function Attrs: mustprogress uwtable
define void @_ZN6duckdb10NextMinuteERiS0_S0_S0_S0_(ptr noundef nonnull align 4 dereferenceable(4) %0, ptr noundef nonnull align 4 dereferenceable(4) %1, ptr noundef nonnull align 4 dereferenceable(4) %2, ptr noundef nonnull align 4 dereferenceable(4) %3, ptr noundef nonnull align 4 dereferenceable(4) %4) #0 {
  %6 = alloca ptr, align 8
  %7 = alloca ptr, align 8
  %8 = alloca ptr, align 8
  %9 = alloca ptr, align 8
  %10 = alloca ptr, align 8
  store ptr %0, ptr %6, align 8, !tbaa !108
  store ptr %1, ptr %7, align 8, !tbaa !108
  store ptr %2, ptr %8, align 8, !tbaa !108
  store ptr %3, ptr %9, align 8, !tbaa !108
  store ptr %4, ptr %10, align 8, !tbaa !108
  %11 = load ptr, ptr %10, align 8, !tbaa !108
  %12 = load i32, ptr %11, align 4, !tbaa !110
  %13 = add nsw i32 %12, 1
  store i32 %13, ptr %11, align 4, !tbaa !110
  %14 = load ptr, ptr %10, align 8, !tbaa !108
  %15 = load i32, ptr %14, align 4, !tbaa !110
  %16 = icmp sge i32 %15, 60
  br i1 %16, label %17, label %23

17:                                               ; preds = %5
  %18 = load ptr, ptr %6, align 8, !tbaa !108
  %19 = load ptr, ptr %7, align 8, !tbaa !108
  %20 = load ptr, ptr %8, align 8, !tbaa !108
  %21 = load ptr, ptr %9, align 8, !tbaa !108
  call void @_ZN6duckdb8NextHourERiS0_S0_S0_(ptr noundef nonnull align 4 dereferenceable(4) %18, ptr noundef nonnull align 4 dereferenceable(4) %19, ptr noundef nonnull align 4 dereferenceable(4) %20, ptr noundef nonnull align 4 dereferenceable(4) %21)
  %22 = load ptr, ptr %10, align 8, !tbaa !108
  store i32 0, ptr %22, align 4, !tbaa !110
  br label %23

23:                                               ; preds = %17, %5
  ret void
}

; Function Attrs: mustprogress uwtable
define void @_ZN6duckdb10NextSecondERiS0_S0_S0_S0_S0_(ptr noundef nonnull align 4 dereferenceable(4) %0, ptr noundef nonnull align 4 dereferenceable(4) %1, ptr noundef nonnull align 4 dereferenceable(4) %2, ptr noundef nonnull align 4 dereferenceable(4) %3, ptr noundef nonnull align 4 dereferenceable(4) %4, ptr noundef nonnull align 4 dereferenceable(4) %5) #0 {
  %7 = alloca ptr, align 8
  %8 = alloca ptr, align 8
  %9 = alloca ptr, align 8
  %10 = alloca ptr, align 8
  %11 = alloca ptr, align 8
  %12 = alloca ptr, align 8
  store ptr %0, ptr %7, align 8, !tbaa !108
  store ptr %1, ptr %8, align 8, !tbaa !108
  store ptr %2, ptr %9, align 8, !tbaa !108
  store ptr %3, ptr %10, align 8, !tbaa !108
  store ptr %4, ptr %11, align 8, !tbaa !108
  store ptr %5, ptr %12, align 8, !tbaa !108
  %13 = load ptr, ptr %12, align 8, !tbaa !108
  %14 = load i32, ptr %13, align 4, !tbaa !110
  %15 = add nsw i32 %14, 1
  store i32 %15, ptr %13, align 4, !tbaa !110
  %16 = load ptr, ptr %12, align 8, !tbaa !108
  %17 = load i32, ptr %16, align 4, !tbaa !110
  %18 = icmp sge i32 %17, 60
  br i1 %18, label %19, label %26

19:                                               ; preds = %6
  %20 = load ptr, ptr %7, align 8, !tbaa !108
  %21 = load ptr, ptr %8, align 8, !tbaa !108
  %22 = load ptr, ptr %9, align 8, !tbaa !108
  %23 = load ptr, ptr %10, align 8, !tbaa !108
  %24 = load ptr, ptr %11, align 8, !tbaa !108
  call void @_ZN6duckdb10NextMinuteERiS0_S0_S0_S0_(ptr noundef nonnull align 4 dereferenceable(4) %20, ptr noundef nonnull align 4 dereferenceable(4) %21, ptr noundef nonnull align 4 dereferenceable(4) %22, ptr noundef nonnull align 4 dereferenceable(4) %23, ptr noundef nonnull align 4 dereferenceable(4) %24)
  %25 = load ptr, ptr %12, align 8, !tbaa !108
  store i32 0, ptr %25, align 4, !tbaa !110
  br label %26

26:                                               ; preds = %19, %6
  ret void
}