; Function Attrs: mustprogress uwtable
define void @_ZN6duckdb10NextSecondERiS0_S0_S0_S0_S0_(ptr noundef nonnull align 4 captures(none) dereferenceable(4) %0, ptr noundef nonnull align 4 captures(none) dereferenceable(4) %1, ptr noundef nonnull align 4 captures(none) dereferenceable(4) %2, ptr noundef nonnull align 4 captures(none) dereferenceable(4) %3, ptr noundef nonnull align 4 captures(none) dereferenceable(4) %4, ptr noundef nonnull align 4 captures(none) dereferenceable(4) %5) local_unnamed_addr #0 {
  %7 = load i32, ptr %5, align 4, !tbaa !86
  %8 = add nsw i32 %7, 1
  store i32 %8, ptr %5, align 4, !tbaa !86
  %9 = icmp sgt i32 %7, 58
  br i1 %9, label %10, label %31

10:                                               ; preds = %6
  %11 = load i32, ptr %4, align 4, !tbaa !86
  %12 = add nsw i32 %11, 1
  store i32 %12, ptr %4, align 4, !tbaa !86
  %13 = icmp sgt i32 %11, 58
  br i1 %13, label %14, label %_ZN6duckdb10NextMinuteERiS0_S0_S0_S0_.exit

14:                                               ; preds = %10
  %15 = load i32, ptr %3, align 4, !tbaa !86
  %16 = add nsw i32 %15, 1
  store i32 %16, ptr %3, align 4, !tbaa !86
  %17 = icmp sgt i32 %15, 22
  br i1 %17, label %18, label %_ZN6duckdb8NextHourERiS0_S0_S0_.exit.i

18:                                               ; preds = %14
  %19 = load i32, ptr %2, align 4, !tbaa !86
  %20 = add nsw i32 %19, 1
  store i32 %20, ptr %2, align 4, !tbaa !86
  %21 = load i32, ptr %0, align 4, !tbaa !86
  %22 = load i32, ptr %1, align 4, !tbaa !86
  %23 = tail call noundef zeroext i1 @_ZN6duckdb4Date7IsValidEiii(i32 noundef %21, i32 noundef %22, i32 noundef %20)
  br i1 %23, label %_ZN6duckdb7NextDayERiS0_S0_.exit.i.i, label %24

24:                                               ; preds = %18
  %25 = load i32, ptr %1, align 4, !tbaa !86
  %26 = add nsw i32 %25, 1
  store i32 %26, ptr %1, align 4, !tbaa !86
  %27 = icmp eq i32 %26, 13
  br i1 %27, label %28, label %_ZN6duckdb9NextMonthERiS0_.exit.i.i.i

28:                                               ; preds = %24
  %29 = load i32, ptr %0, align 4, !tbaa !86
  %30 = add nsw i32 %29, 1
  store i32 %30, ptr %0, align 4, !tbaa !86
  store i32 1, ptr %1, align 4, !tbaa !86
  br label %_ZN6duckdb9NextMonthERiS0_.exit.i.i.i

_ZN6duckdb9NextMonthERiS0_.exit.i.i.i:            ; preds = %28, %24
  store i32 1, ptr %2, align 4, !tbaa !86
  br label %_ZN6duckdb7NextDayERiS0_S0_.exit.i.i

_ZN6duckdb7NextDayERiS0_S0_.exit.i.i:             ; preds = %_ZN6duckdb9NextMonthERiS0_.exit.i.i.i, %18
  store i32 0, ptr %3, align 4, !tbaa !86
  br label %_ZN6duckdb8NextHourERiS0_S0_S0_.exit.i

_ZN6duckdb8NextHourERiS0_S0_S0_.exit.i:           ; preds = %_ZN6duckdb7NextDayERiS0_S0_.exit.i.i, %14
  store i32 0, ptr %4, align 4, !tbaa !86
  br label %_ZN6duckdb10NextMinuteERiS0_S0_S0_S0_.exit

_ZN6duckdb10NextMinuteERiS0_S0_S0_S0_.exit:       ; preds = %10, %_ZN6duckdb8NextHourERiS0_S0_S0_.exit.i
  store i32 0, ptr %5, align 4, !tbaa !86
  br label %31

31:                                               ; preds = %_ZN6duckdb10NextMinuteERiS0_S0_S0_S0_.exit, %6
  ret void
}